; ModuleID = '63/1586.c'
source_filename = "63/1586.c"
target datalayout = "e-m:e-p270:32:32-p271:32:32-p272:64:64-i64:64-f80:128-n8:16:32:64-S128"
target triple = "x86_64-pc-linux-gnu"

@.str = private unnamed_addr constant [6 x i8] c"%d %d\00", align 1
@.str.1 = private unnamed_addr constant [3 x i8] c"%d\00", align 1
@.str.2 = private unnamed_addr constant [4 x i8] c"%d\0A\00", align 1
@.str.3 = private unnamed_addr constant [4 x i8] c"%d \00", align 1

; Function Attrs: noinline nounwind uwtable
define dso_local i32 @main() #0 {
  %1 = alloca i32, align 4
  %2 = alloca [500 x [500 x i32]], align 16
  %3 = alloca [500 x [500 x i32]], align 16
  %4 = alloca [500 x [500 x i32]], align 16
  %5 = alloca i32, align 4
  %6 = alloca i32, align 4
  %7 = alloca i32, align 4
  %8 = alloca i32, align 4
  %9 = alloca i32, align 4
  %10 = alloca i32, align 4
  %11 = alloca i32, align 4
  store i32 0, i32* %1, align 4
  %12 = call i32 (i8*, ...) @__isoc99_scanf(i8* getelementptr inbounds ([6 x i8], [6 x i8]* @.str, i64 0, i64 0), i32* %8, i32* %9)
  store i32 0, i32* %5, align 4
  br label %13

13:                                               ; preds = %34, %0
  %14 = load i32, i32* %5, align 4
  %15 = load i32, i32* %8, align 4
  %16 = icmp slt i32 %14, %15
  br i1 %16, label %17, label %37

17:                                               ; preds = %13
  store i32 0, i32* %6, align 4
  br label %18

18:                                               ; preds = %30, %17
  %19 = load i32, i32* %6, align 4
  %20 = load i32, i32* %9, align 4
  %21 = icmp slt i32 %19, %20
  br i1 %21, label %22, label %33

22:                                               ; preds = %18
  %23 = load i32, i32* %5, align 4
  %24 = sext i32 %23 to i64
  %25 = getelementptr inbounds [500 x [500 x i32]], [500 x [500 x i32]]* %2, i64 0, i64 %24
  %26 = load i32, i32* %6, align 4
  %27 = sext i32 %26 to i64
  %28 = getelementptr inbounds [500 x i32], [500 x i32]* %25, i64 0, i64 %27
  %29 = call i32 (i8*, ...) @__isoc99_scanf(i8* getelementptr inbounds ([3 x i8], [3 x i8]* @.str.1, i64 0, i64 0), i32* %28)
  br label %30

30:                                               ; preds = %22
  %31 = load i32, i32* %6, align 4
  %32 = add nsw i32 %31, 1
  store i32 %32, i32* %6, align 4
  br label %18

33:                                               ; preds = %18
  br label %34

34:                                               ; preds = %33
  %35 = load i32, i32* %5, align 4
  %36 = add nsw i32 %35, 1
  store i32 %36, i32* %5, align 4
  br label %13

37:                                               ; preds = %13
  %38 = call i32 (i8*, ...) @__isoc99_scanf(i8* getelementptr inbounds ([6 x i8], [6 x i8]* @.str, i64 0, i64 0), i32* %10, i32* %11)
  store i32 0, i32* %5, align 4
  br label %39

39:                                               ; preds = %60, %37
  %40 = load i32, i32* %5, align 4
  %41 = load i32, i32* %10, align 4
  %42 = icmp slt i32 %40, %41
  br i1 %42, label %43, label %63

43:                                               ; preds = %39
  store i32 0, i32* %6, align 4
  br label %44

44:                                               ; preds = %56, %43
  %45 = load i32, i32* %6, align 4
  %46 = load i32, i32* %11, align 4
  %47 = icmp slt i32 %45, %46
  br i1 %47, label %48, label %59

48:                                               ; preds = %44
  %49 = load i32, i32* %5, align 4
  %50 = sext i32 %49 to i64
  %51 = getelementptr inbounds [500 x [500 x i32]], [500 x [500 x i32]]* %3, i64 0, i64 %50
  %52 = load i32, i32* %6, align 4
  %53 = sext i32 %52 to i64
  %54 = getelementptr inbounds [500 x i32], [500 x i32]* %51, i64 0, i64 %53
  %55 = call i32 (i8*, ...) @__isoc99_scanf(i8* getelementptr inbounds ([3 x i8], [3 x i8]* @.str.1, i64 0, i64 0), i32* %54)
  br label %56

56:                                               ; preds = %48
  %57 = load i32, i32* %6, align 4
  %58 = add nsw i32 %57, 1
  store i32 %58, i32* %6, align 4
  br label %44

59:                                               ; preds = %44
  br label %60

60:                                               ; preds = %59
  %61 = load i32, i32* %5, align 4
  %62 = add nsw i32 %61, 1
  store i32 %62, i32* %5, align 4
  br label %39

63:                                               ; preds = %39
  store i32 0, i32* %5, align 4
  br label %64

64:                                               ; preds = %145, %63
  %65 = load i32, i32* %5, align 4
  %66 = load i32, i32* %8, align 4
  %67 = icmp slt i32 %65, %66
  br i1 %67, label %68, label %148

68:                                               ; preds = %64
  store i32 0, i32* %6, align 4
  br label %69

69:                                               ; preds = %141, %68
  %70 = load i32, i32* %6, align 4
  %71 = load i32, i32* %11, align 4
  %72 = icmp slt i32 %70, %71
  br i1 %72, label %73, label %144

73:                                               ; preds = %69
  %74 = load i32, i32* %5, align 4
  %75 = sext i32 %74 to i64
  %76 = getelementptr inbounds [500 x [500 x i32]], [500 x [500 x i32]]* %4, i64 0, i64 %75
  %77 = load i32, i32* %6, align 4
  %78 = sext i32 %77 to i64
  %79 = getelementptr inbounds [500 x i32], [500 x i32]* %76, i64 0, i64 %78
  store i32 0, i32* %79, align 4
  store i32 0, i32* %7, align 4
  br label %80

80:                                               ; preds = %114, %73
  %81 = load i32, i32* %7, align 4
  %82 = load i32, i32* %9, align 4
  %83 = icmp slt i32 %81, %82
  br i1 %83, label %84, label %117

84:                                               ; preds = %80
  %85 = load i32, i32* %5, align 4
  %86 = sext i32 %85 to i64
  %87 = getelementptr inbounds [500 x [500 x i32]], [500 x [500 x i32]]* %4, i64 0, i64 %86
  %88 = load i32, i32* %6, align 4
  %89 = sext i32 %88 to i64
  %90 = getelementptr inbounds [500 x i32], [500 x i32]* %87, i64 0, i64 %89
  %91 = load i32, i32* %90, align 4
  %92 = load i32, i32* %5, align 4
  %93 = sext i32 %92 to i64
  %94 = getelementptr inbounds [500 x [500 x i32]], [500 x [500 x i32]]* %2, i64 0, i64 %93
  %95 = load i32, i32* %7, align 4
  %96 = sext i32 %95 to i64
  %97 = getelementptr inbounds [500 x i32], [500 x i32]* %94, i64 0, i64 %96
  %98 = load i32, i32* %97, align 4
  %99 = load i32, i32* %7, align 4
  %100 = sext i32 %99 to i64
  %101 = getelementptr inbounds [500 x [500 x i32]], [500 x [500 x i32]]* %3, i64 0, i64 %100
  %102 = load i32, i32* %6, align 4
  %103 = sext i32 %102 to i64
  %104 = getelementptr inbounds [500 x i32], [500 x i32]* %101, i64 0, i64 %103
  %105 = load i32, i32* %104, align 4
  %106 = mul nsw i32 %98, %105
  %107 = add nsw i32 %91, %106
  %108 = load i32, i32* %5, align 4
  %109 = sext i32 %108 to i64
  %110 = getelementptr inbounds [500 x [500 x i32]], [500 x [500 x i32]]* %4, i64 0, i64 %109
  %111 = load i32, i32* %6, align 4
  %112 = sext i32 %111 to i64
  %113 = getelementptr inbounds [500 x i32], [500 x i32]* %110, i64 0, i64 %112
  store i32 %107, i32* %113, align 4
  br label %114

114:                                              ; preds = %84
  %115 = load i32, i32* %7, align 4
  %116 = add nsw i32 %115, 1
  store i32 %116, i32* %7, align 4
  br label %80

117:                                              ; preds = %80
  %118 = load i32, i32* %6, align 4
  %119 = load i32, i32* %11, align 4
  %120 = sub nsw i32 %119, 1
  %121 = icmp eq i32 %118, %120
  br i1 %121, label %122, label %131

122:                                              ; preds = %117
  %123 = load i32, i32* %5, align 4
  %124 = sext i32 %123 to i64
  %125 = getelementptr inbounds [500 x [500 x i32]], [500 x [500 x i32]]* %4, i64 0, i64 %124
  %126 = load i32, i32* %6, align 4
  %127 = sext i32 %126 to i64
  %128 = getelementptr inbounds [500 x i32], [500 x i32]* %125, i64 0, i64 %127
  %129 = load i32, i32* %128, align 4
  %130 = call i32 (i8*, ...) @printf(i8* getelementptr inbounds ([4 x i8], [4 x i8]* @.str.2, i64 0, i64 0), i32 %129)
  br label %140

131:                                              ; preds = %117
  %132 = load i32, i32* %5, align 4
  %133 = sext i32 %132 to i64
  %134 = getelementptr inbounds [500 x [500 x i32]], [500 x [500 x i32]]* %4, i64 0, i64 %133
  %135 = load i32, i32* %6, align 4
  %136 = sext i32 %135 to i64
  %137 = getelementptr inbounds [500 x i32], [500 x i32]* %134, i64 0, i64 %136
  %138 = load i32, i32* %137, align 4
  %139 = call i32 (i8*, ...) @printf(i8* getelementptr inbounds ([4 x i8], [4 x i8]* @.str.3, i64 0, i64 0), i32 %138)
  br label %140

140:                                              ; preds = %131, %122
  br label %141

141:                                              ; preds = %140
  %142 = load i32, i32* %6, align 4
  %143 = add nsw i32 %142, 1
  store i32 %143, i32* %6, align 4
  br label %69

144:                                              ; preds = %69
  br label %145

145:                                              ; preds = %144
  %146 = load i32, i32* %5, align 4
  %147 = add nsw i32 %146, 1
  store i32 %147, i32* %5, align 4
  br label %64

148:                                              ; preds = %64
  %149 = load i32, i32* %1, align 4
  ret i32 %149
}

declare dso_local i32 @__isoc99_scanf(i8*, ...) #1

declare dso_local i32 @printf(i8*, ...) #1


!llvm.module.flags = !{!0}
!llvm.ident = !{!1}

!0 = !{i32 1, !"wchar_size", i32 4}
!1 = !{!"clang version 10.0.0-4ubuntu1 "}
